; Function Attrs: mustprogress uwtable
define void @_ZN9grpc_core8Executor15SetThreadingAllEb(i1 noundef zeroext %enable) local_unnamed_addr #3 align 2 personality ptr @__gxx_personality_v0 {
entry:
  %0 = load atomic i8, ptr getelementptr inbounds (%"class.grpc_core::TraceFlag", ptr @_ZN9grpc_core14executor_traceE, i64 0, i32 2, i32 0, i32 0) monotonic, align 8
  %1 = and i8 %0, 1
  %tobool.i.i.i.not = icmp eq i8 %1, 0
  br i1 %tobool.i.i.i.not, label %for.body, label %if.then

if.then:                                          ; preds = %entry
  %conv = zext i1 %enable to i32
  tail call void (ptr, i32, i32, ptr, ...) @gpr_log(ptr noundef nonnull @.str.2, i32 noundef 439, i32 noundef 1, ptr noundef nonnull @.str.26, i32 noundef %conv)
  br label %for.body

for.body:                                         ; preds = %if.then, %entry
  %2 = load ptr, ptr @_ZN9grpc_core12_GLOBAL__N_19executorsE, align 16
  tail call void @_ZN9grpc_core8Executor12SetThreadingEb(ptr noundef nonnull align 8 dereferenceable(40) %2, i1 noundef zeroext %enable)
  %3 = load ptr, ptr getelementptr inbounds ([2 x ptr], ptr @_ZN9grpc_core12_GLOBAL__N_19executorsE, i64 0, i64 1), align 8
  tail call void @_ZN9grpc_core8Executor12SetThreadingEb(ptr noundef nonnull align 8 dereferenceable(40) %3, i1 noundef zeroext %enable)
  ret void
}